
build/app.elf:     file format elf32-littleriscv


Disassembly of section .text:

42000000 <_start>:
42000000:	fdce4117          	auipc	sp,0xfdce4
42000004:	00010113          	mv	sp,sp
42000008:	fdc80297          	auipc	t0,0xfdc80
4200000c:	ff828293          	addi	t0,t0,-8 # 3fc80000 <_ebss>
42000010:	fdc80317          	auipc	t1,0xfdc80
42000014:	ff030313          	addi	t1,t1,-16 # 3fc80000 <_ebss>
42000018:	0062d863          	bge	t0,t1,42000028 <_start+0x28>
4200001c:	0002a023          	sw	zero,0(t0)
42000020:	00428293          	addi	t0,t0,4
42000024:	ff5ff06f          	j	42000018 <_start+0x18>
42000028:	fdc80297          	auipc	t0,0xfdc80
4200002c:	fd828293          	addi	t0,t0,-40 # 3fc80000 <_ebss>
42000030:	fdc80317          	auipc	t1,0xfdc80
42000034:	fd030313          	addi	t1,t1,-48 # 3fc80000 <_ebss>
42000038:	00000397          	auipc	t2,0x0
4200003c:	14438393          	addi	t2,t2,324 # 4200017c <_sidata>
42000040:	0062dc63          	bge	t0,t1,42000058 <_start+0x58>
42000044:	0003ae03          	lw	t3,0(t2)
42000048:	01c2a023          	sw	t3,0(t0)
4200004c:	00428293          	addi	t0,t0,4
42000050:	00438393          	addi	t2,t2,4
42000054:	fedff06f          	j	42000040 <_start+0x40>
42000058:	2019                	jal	4200005e <main>
4200005a:	0000006f          	j	4200005a <_start+0x5a>

4200005e <main>:
4200005e:	50d847b7          	lui	a5,0x50d84
42000062:	6001f6b7          	lui	a3,0x6001f
42000066:	aa178793          	addi	a5,a5,-1375 # 50d83aa1 <_sidata+0xed83925>
4200006a:	d2fc                	sw	a5,100(a3)
4200006c:	4805                	li	a6,1
4200006e:	0706a023          	sw	a6,96(a3) # 6001f060 <_sidata+0x1e01eee4>
42000072:	0406a623          	sw	zero,76(a3)
42000076:	0406a823          	sw	zero,80(a3)
4200007a:	0406aa23          	sw	zero,84(a3)
4200007e:	0406ac23          	sw	zero,88(a3)
42000082:	0406ae23          	sw	zero,92(a3)
42000086:	46b8                	lw	a4,72(a3)
42000088:	007f95b7          	lui	a1,0x7f9
4200008c:	15fd                	addi	a1,a1,-1 # 7f8fff <app_banner-0x3b807001>
4200008e:	00400537          	lui	a0,0x400
42000092:	8f6d                	and	a4,a4,a1
42000094:	8f49                	or	a4,a4,a0
42000096:	c6b8                	sw	a4,72(a3)
42000098:	0606a223          	sw	zero,100(a3)
4200009c:	600206b7          	lui	a3,0x60020
420000a0:	d2fc                	sw	a5,100(a3)
420000a2:	0706a023          	sw	a6,96(a3) # 60020060 <_sidata+0x1e01fee4>
420000a6:	0406a623          	sw	zero,76(a3)
420000aa:	0406a823          	sw	zero,80(a3)
420000ae:	0406aa23          	sw	zero,84(a3)
420000b2:	0406ac23          	sw	zero,88(a3)
420000b6:	0406ae23          	sw	zero,92(a3)
420000ba:	46b8                	lw	a4,72(a3)
420000bc:	0007e637          	lui	a2,0x7e
420000c0:	3ff60613          	addi	a2,a2,1023 # 7e3ff <app_banner-0x3bf81c01>
420000c4:	8f6d                	and	a4,a4,a1
420000c6:	8f49                	or	a4,a4,a0
420000c8:	c6b8                	sw	a4,72(a3)
420000ca:	60008737          	lui	a4,0x60008
420000ce:	0606a223          	sw	zero,100(a3)
420000d2:	0a870713          	addi	a4,a4,168 # 600080a8 <_sidata+0x1e007f2c>
420000d6:	c31c                	sw	a5,0(a4)
420000d8:	800006b7          	lui	a3,0x80000
420000dc:	600087b7          	lui	a5,0x60008
420000e0:	0ad7a223          	sw	a3,164(a5) # 600080a4 <_sidata+0x1e007f28>
420000e4:	0807aa23          	sw	zero,148(a5)
420000e8:	0807ac23          	sw	zero,152(a5)
420000ec:	0807ae23          	sw	zero,156(a5)
420000f0:	0a07a023          	sw	zero,160(a5)
420000f4:	09078793          	addi	a5,a5,144
420000f8:	4394                	lw	a3,0(a5)
420000fa:	8ef1                	and	a3,a3,a2
420000fc:	c394                	sw	a3,0(a5)
420000fe:	00072023          	sw	zero,0(a4)
42000102:	600087b7          	lui	a5,0x60008
42000106:	8f1d3737          	lui	a4,0x8f1d3
4200010a:	0b078793          	addi	a5,a5,176 # 600080b0 <_sidata+0x1e007f34>
4200010e:	12a70713          	addi	a4,a4,298 # 8f1d312a <_sidata+0x4d1d2fae>
42000112:	c398                	sw	a4,0(a5)
42000114:	60008737          	lui	a4,0x60008
42000118:	0ac70713          	addi	a4,a4,172 # 600080ac <_sidata+0x1e007f30>
4200011c:	4314                	lw	a3,0(a4)
4200011e:	40000637          	lui	a2,0x40000
42000122:	8ed1                	or	a3,a3,a2
42000124:	c314                	sw	a3,0(a4)
42000126:	0007a023          	sw	zero,0(a5)
4200012a:	4721                	li	a4,8
4200012c:	600047b7          	lui	a5,0x60004
42000130:	d3d8                	sw	a4,36(a5)
42000132:	00e786b3          	add	a3,a5,a4
42000136:	00c78613          	addi	a2,a5,12 # 6000400c <_sidata+0x1e003e90>
4200013a:	001e87b7          	lui	a5,0x1e8
4200013e:	c298                	sw	a4,0(a3)
42000140:	48078793          	addi	a5,a5,1152 # 1e8480 <app_banner-0x3be17b80>
42000144:	85be                	mv	a1,a5
42000146:	17fd                	addi	a5,a5,-1
42000148:	e999                	bnez	a1,4200015e <main+0x100>
4200014a:	001e87b7          	lui	a5,0x1e8
4200014e:	c218                	sw	a4,0(a2)
42000150:	48078793          	addi	a5,a5,1152 # 1e8480 <app_banner-0x3be17b80>
42000154:	85be                	mv	a1,a5
42000156:	17fd                	addi	a5,a5,-1
42000158:	d1ed                	beqz	a1,4200013a <main+0xdc>
4200015a:	0001                	nop
4200015c:	bfe5                	j	42000154 <main+0xf6>
4200015e:	0001                	nop
42000160:	b7d5                	j	42000144 <main+0xe6>
	...
